#include <math.h>
#include <stdio.h>
#include <stdlib.h>
#include <string.h>

void main()
{
	int i,j,k,m,n;
	int*p;
	p=(int*)malloc(200*sizeof(int));
	scanf("%d\n",&n);
	for(i=0;i<n;i++)
	{
		scanf("%d",p+i);
	}
	for(i=0;i<n/2;i++)
	{
		m=*(p+i);
		*(p+i)=*(p+n-1-i);
		*(p+n-1-i)=m;
	}
	for(i=0;i<n-1;i++)
	{
		printf("%d ",*(p+i));
	}
	printf("%d",*(p+n-1));
}
